target datalayout = "e-m:e-p270:32:32-p271:32:32-p272:64:64-i64:64-i128:128-f80:128-n8:16:32:64-S128"
target triple = "x86_64-unknown-linux-gnu"

%"class.std::__cxx11::basic_string" = type { %"struct.std::__cxx11::basic_string<char>::_Alloc_hider", i64, %union.anon }
%"struct.std::__cxx11::basic_string<char>::_Alloc_hider" = type { ptr }
%union.anon = type { i64, [8 x i8] }
%"class.std::mersenne_twister_engine" = type { [624 x i64], i64 }
%"class.std::__cxx11::basic_stringstream" = type { %"class.std::basic_iostream.base", %"class.std::__cxx11::basic_stringbuf", %"class.std::basic_ios" }
%"class.std::basic_iostream.base" = type { %"class.std::basic_istream.base", %"class.std::basic_ostream.base" }
%"class.std::basic_istream.base" = type { ptr, i64 }
%"class.std::basic_ostream.base" = type { ptr }
%"class.std::__cxx11::basic_stringbuf" = type { %"class.std::basic_streambuf", i32, %"class.std::__cxx11::basic_string" }
%"class.std::basic_streambuf" = type { ptr, ptr, ptr, ptr, ptr, ptr, ptr, %"class.std::locale" }
%"class.std::locale" = type { ptr }
%"class.std::basic_ios" = type { %"class.std::ios_base", ptr, i8, i8, ptr, ptr, ptr, ptr }
%"class.std::ios_base" = type { ptr, i64, i64, i32, i32, i32, ptr, %"struct.std::ios_base::_Words", [8 x %"struct.std::ios_base::_Words"], i32, ptr, %"class.std::locale" }
%"struct.std::ios_base::_Words" = type { ptr, i64 }

; Function Attrs: mustprogress nounwind uwtable
define linkonce_odr noundef i32 @_ZNSt8ios_base5flagsESt13_Ios_Fmtflags(ptr noundef nonnull align 8 dereferenceable(216) %this, i32 noundef %__fmtfl) #6 comdat align 2 {
entry:
  %this.addr = alloca ptr, align 8
  %__fmtfl.addr = alloca i32, align 4
  %__old = alloca i32, align 4
  store ptr %this, ptr %this.addr, align 8
  store i32 %__fmtfl, ptr %__fmtfl.addr, align 4
  %this1 = load ptr, ptr %this.addr, align 8
  %_M_flags = getelementptr inbounds %"class.std::ios_base", ptr %this1, i32 0, i32 3
  %0 = load i32, ptr %_M_flags, align 8
  store i32 %0, ptr %__old, align 4
  %1 = load i32, ptr %__fmtfl.addr, align 4
  %_M_flags2 = getelementptr inbounds %"class.std::ios_base", ptr %this1, i32 0, i32 3
  store i32 %1, ptr %_M_flags2, align 8
  %2 = load i32, ptr %__old, align 4
  ret i32 %2
}

; Function Attrs: mustprogress nounwind uwtable
define linkonce_odr noundef i32 @_ZStorSt13_Ios_FmtflagsS_(i32 noundef %__a, i32 noundef %__b) #6 comdat {
entry:
  %__a.addr = alloca i32, align 4
  %__b.addr = alloca i32, align 4
  store i32 %__a, ptr %__a.addr, align 4
  store i32 %__b, ptr %__b.addr, align 4
  %0 = load i32, ptr %__a.addr, align 4
  %1 = load i32, ptr %__b.addr, align 4
  %or = or i32 %0, %1
  ret i32 %or
}

; Function Attrs: mustprogress nounwind uwtable
define linkonce_odr noundef i32 @_ZNKSt8ios_base5flagsEv(ptr noundef nonnull align 8 dereferenceable(216) %this) #6 comdat align 2 {
entry:
  %this.addr = alloca ptr, align 8
  store ptr %this, ptr %this.addr, align 8
  %this1 = load ptr, ptr %this.addr, align 8
  %_M_flags = getelementptr inbounds %"class.std::ios_base", ptr %this1, i32 0, i32 3
  %0 = load i32, ptr %_M_flags, align 8
  ret i32 %0
}

; Function Attrs: mustprogress uwtable
define linkonce_odr noundef nonnull align 8 dereferenceable(16) ptr @_ZStrsImLm32ELm624ELm397ELm31ETnT_Lm2567483615ELm11ETnS0_Lm4294967295ELm7ETnS0_Lm2636928640ELm15ETnS0_Lm4022730752ELm18ETnS0_Lm1812433253EcSt11char_traitsIcEERSt13basic_istreamIT13_T14_ES7_RSt23mersenne_twister_engineIS0_XT0_EXT1_EXT2_EXT3_EXT4_EXT5_EXT6_EXT7_EXT8_EXT9_EXT10_EXT11_EXT12_EE(ptr noundef nonnull align 8 dereferenceable(16) %__is, ptr noundef nonnull align 8 dereferenceable(5000) %__x) #4 comdat {
entry:
  %__is.addr = alloca ptr, align 8
  %__x.addr = alloca ptr, align 8
  %__flags = alloca i32, align 4
  %__i = alloca i64, align 8
  store ptr %__is, ptr %__is.addr, align 8
  store ptr %__x, ptr %__x.addr, align 8
  %0 = load ptr, ptr %__is.addr, align 8
  %vtable = load ptr, ptr %0, align 8
  %vbase.offset.ptr = getelementptr i8, ptr %vtable, i64 -24
  %vbase.offset = load i64, ptr %vbase.offset.ptr, align 8
  %add.ptr = getelementptr inbounds i8, ptr %0, i64 %vbase.offset
  %call = call noundef i32 @_ZNKSt8ios_base5flagsEv(ptr noundef nonnull align 8 dereferenceable(216) %add.ptr)
  store i32 %call, ptr %__flags, align 4
  %1 = load ptr, ptr %__is.addr, align 8
  %vtable1 = load ptr, ptr %1, align 8
  %vbase.offset.ptr2 = getelementptr i8, ptr %vtable1, i64 -24
  %vbase.offset3 = load i64, ptr %vbase.offset.ptr2, align 8
  %add.ptr4 = getelementptr inbounds i8, ptr %1, i64 %vbase.offset3
  %call5 = call noundef i32 @_ZStorSt13_Ios_FmtflagsS_(i32 noundef 2, i32 noundef 4096)
  %call6 = call noundef i32 @_ZNSt8ios_base5flagsESt13_Ios_Fmtflags(ptr noundef nonnull align 8 dereferenceable(216) %add.ptr4, i32 noundef %call5)
  store i64 0, ptr %__i, align 8
  br label %for.cond

for.cond:                                         ; preds = %for.inc, %entry
  %2 = load i64, ptr %__i, align 8
  %cmp = icmp ult i64 %2, 624
  br i1 %cmp, label %for.body, label %for.end

for.body:                                         ; preds = %for.cond
  %3 = load ptr, ptr %__is.addr, align 8
  %4 = load ptr, ptr %__x.addr, align 8
  %_M_x = getelementptr inbounds %"class.std::mersenne_twister_engine", ptr %4, i32 0, i32 0
  %5 = load i64, ptr %__i, align 8
  %arrayidx = getelementptr inbounds [624 x i64], ptr %_M_x, i64 0, i64 %5
  %call7 = call noundef nonnull align 8 dereferenceable(16) ptr @_ZNSirsERm(ptr noundef nonnull align 8 dereferenceable(16) %3, ptr noundef nonnull align 8 dereferenceable(8) %arrayidx)
  br label %for.inc

for.inc:                                          ; preds = %for.body
  %6 = load i64, ptr %__i, align 8
  %inc = add i64 %6, 1
  store i64 %inc, ptr %__i, align 8
  br label %for.cond, !llvm.loop !27

for.end:                                          ; preds = %for.cond
  %7 = load ptr, ptr %__is.addr, align 8
  %8 = load ptr, ptr %__x.addr, align 8
  %_M_p = getelementptr inbounds %"class.std::mersenne_twister_engine", ptr %8, i32 0, i32 1
  %call8 = call noundef nonnull align 8 dereferenceable(16) ptr @_ZNSirsERm(ptr noundef nonnull align 8 dereferenceable(16) %7, ptr noundef nonnull align 8 dereferenceable(8) %_M_p)
  %9 = load ptr, ptr %__is.addr, align 8
  %vtable9 = load ptr, ptr %9, align 8
  %vbase.offset.ptr10 = getelementptr i8, ptr %vtable9, i64 -24
  %vbase.offset11 = load i64, ptr %vbase.offset.ptr10, align 8
  %add.ptr12 = getelementptr inbounds i8, ptr %9, i64 %vbase.offset11
  %10 = load i32, ptr %__flags, align 4
  %call13 = call noundef i32 @_ZNSt8ios_base5flagsESt13_Ios_Fmtflags(ptr noundef nonnull align 8 dereferenceable(216) %add.ptr12, i32 noundef %10)
  %11 = load ptr, ptr %__is.addr, align 8
  ret ptr %11
}

; Function Attrs: mustprogress uwtable
define void @_Z17mt19937_set_stateRSt23mersenne_twister_engineImLm32ELm624ELm397ELm31ELm2567483615ELm11ELm4294967295ELm7ELm2636928640ELm15ELm4022730752ELm18ELm1812433253EERKNSt7__cxx1112basic_stringIcSt11char_traitsIcESaIcEEE(ptr noundef nonnull align 8 dereferenceable(5000) %rng, ptr noundef nonnull align 8 dereferenceable(32) %rng_state) #4 personality ptr @__gxx_personality_v0 {
entry:
  %rng.addr = alloca ptr, align 8
  %rng_state.addr = alloca ptr, align 8
  %s_rng_state = alloca %"class.std::__cxx11::basic_stringstream", align 8
  %agg.tmp.ensured = alloca %"class.std::locale", align 8
  %exn.slot = alloca ptr, align 8
  %ehselector.slot = alloca i32, align 4
  store ptr %rng, ptr %rng.addr, align 8
  store ptr %rng_state, ptr %rng_state.addr, align 8
  call void @_ZNSt7__cxx1118basic_stringstreamIcSt11char_traitsIcESaIcEEC1Ev(ptr noundef nonnull align 8 dereferenceable(128) %s_rng_state)
  %vtable = load ptr, ptr %s_rng_state, align 8
  %vbase.offset.ptr = getelementptr i8, ptr %vtable, i64 -24
  %vbase.offset = load i64, ptr %vbase.offset.ptr, align 8
  %add.ptr = getelementptr inbounds i8, ptr %s_rng_state, i64 %vbase.offset
  %call = invoke noundef nonnull align 8 dereferenceable(8) ptr @_ZNSt6locale7classicEv()
          to label %invoke.cont unwind label %lpad

invoke.cont:                                      ; preds = %entry
  invoke void @_ZNSt9basic_iosIcSt11char_traitsIcEE5imbueERKSt6locale(ptr sret(%"class.std::locale") align 8 %agg.tmp.ensured, ptr noundef nonnull align 8 dereferenceable(264) %add.ptr, ptr noundef nonnull align 8 dereferenceable(8) %call)
          to label %invoke.cont1 unwind label %lpad

invoke.cont1:                                     ; preds = %invoke.cont
  call void @_ZNSt6localeD1Ev(ptr noundef nonnull align 8 dereferenceable(8) %agg.tmp.ensured) #3
  %vtable2 = load ptr, ptr %s_rng_state, align 8
  %vbase.offset.ptr3 = getelementptr i8, ptr %vtable2, i64 -24
  %vbase.offset4 = load i64, ptr %vbase.offset.ptr3, align 8
  %add.ptr5 = getelementptr inbounds i8, ptr %s_rng_state, i64 %vbase.offset4
  invoke void @_ZNSt9basic_iosIcSt11char_traitsIcEE10exceptionsESt12_Ios_Iostate(ptr noundef nonnull align 8 dereferenceable(264) %add.ptr5, i32 noundef 4)
          to label %invoke.cont6 unwind label %lpad

invoke.cont6:                                     ; preds = %invoke.cont1
  %0 = load ptr, ptr %rng_state.addr, align 8
  invoke void @_ZNSt7__cxx1118basic_stringstreamIcSt11char_traitsIcESaIcEE3strERKNS_12basic_stringIcS2_S3_EE(ptr noundef nonnull align 8 dereferenceable(128) %s_rng_state, ptr noundef nonnull align 8 dereferenceable(32) %0)
          to label %invoke.cont7 unwind label %lpad

invoke.cont7:                                     ; preds = %invoke.cont6
  %1 = load ptr, ptr %rng.addr, align 8
  %call9 = invoke noundef nonnull align 8 dereferenceable(16) ptr @_ZStrsImLm32ELm624ELm397ELm31ETnT_Lm2567483615ELm11ETnS0_Lm4294967295ELm7ETnS0_Lm2636928640ELm15ETnS0_Lm4022730752ELm18ETnS0_Lm1812433253EcSt11char_traitsIcEERSt13basic_istreamIT13_T14_ES7_RSt23mersenne_twister_engineIS0_XT0_EXT1_EXT2_EXT3_EXT4_EXT5_EXT6_EXT7_EXT8_EXT9_EXT10_EXT11_EXT12_EE(ptr noundef nonnull align 8 dereferenceable(16) %s_rng_state, ptr noundef nonnull align 8 dereferenceable(5000) %1)
          to label %invoke.cont8 unwind label %lpad

invoke.cont8:                                     ; preds = %invoke.cont7
  call void @_ZNSt7__cxx1118basic_stringstreamIcSt11char_traitsIcESaIcEED1Ev(ptr noundef nonnull align 8 dereferenceable(128) %s_rng_state) #3
  ret void

lpad:                                             ; preds = %invoke.cont7, %invoke.cont6, %invoke.cont1, %invoke.cont, %entry
  %2 = landingpad { ptr, i32 }
          cleanup
  %3 = extractvalue { ptr, i32 } %2, 0
  store ptr %3, ptr %exn.slot, align 8
  %4 = extractvalue { ptr, i32 } %2, 1
  store i32 %4, ptr %ehselector.slot, align 4
  call void @_ZNSt7__cxx1118basic_stringstreamIcSt11char_traitsIcESaIcEED1Ev(ptr noundef nonnull align 8 dereferenceable(128) %s_rng_state) #3
  br label %eh.resume

eh.resume:                                        ; preds = %lpad
  %exn = load ptr, ptr %exn.slot, align 8
  %sel = load i32, ptr %ehselector.slot, align 4
  %lpad.val = insertvalue { ptr, i32 } poison, ptr %exn, 0
  %lpad.val10 = insertvalue { ptr, i32 } %lpad.val, i32 %sel, 1
  resume { ptr, i32 } %lpad.val10
}