; Function Attrs: mustprogress uwtable
define void @_Z17mt19937_set_stateRSt23mersenne_twister_engineImLm32ELm624ELm397ELm31ELm2567483615ELm11ELm4294967295ELm7ELm2636928640ELm15ELm4022730752ELm18ELm1812433253EERKNSt7__cxx1112basic_stringIcSt11char_traitsIcESaIcEEE(ptr noundef nonnull align 8 dereferenceable(5000) %rng, ptr noundef nonnull align 8 dereferenceable(32) %rng_state) local_unnamed_addr #3 personality ptr @__gxx_personality_v0 {
entry:
  %s_rng_state = alloca %"class.std::__cxx11::basic_stringstream", align 8
  %agg.tmp.ensured = alloca %"class.std::locale", align 8
  call void @_ZNSt7__cxx1118basic_stringstreamIcSt11char_traitsIcESaIcEEC1Ev(ptr noundef nonnull align 8 dereferenceable(128) %s_rng_state)
  %vtable = load ptr, ptr %s_rng_state, align 8
  %vbase.offset.ptr = getelementptr i8, ptr %vtable, i64 -24
  %vbase.offset = load i64, ptr %vbase.offset.ptr, align 8
  %call = invoke noundef nonnull align 8 dereferenceable(8) ptr @_ZNSt6locale7classicEv()
          to label %invoke.cont unwind label %lpad.loopexit.split-lp

invoke.cont:                                      ; preds = %entry
  %add.ptr = getelementptr inbounds i8, ptr %s_rng_state, i64 %vbase.offset
  invoke void @_ZNSt9basic_iosIcSt11char_traitsIcEE5imbueERKSt6locale(ptr nonnull sret(%"class.std::locale") align 8 %agg.tmp.ensured, ptr noundef nonnull align 8 dereferenceable(264) %add.ptr, ptr noundef nonnull align 8 dereferenceable(8) %call)
          to label %invoke.cont1 unwind label %lpad.loopexit.split-lp

invoke.cont1:                                     ; preds = %invoke.cont
  call void @_ZNSt6localeD1Ev(ptr noundef nonnull align 8 dereferenceable(8) %agg.tmp.ensured) #36
  %vtable2 = load ptr, ptr %s_rng_state, align 8
  %vbase.offset.ptr3 = getelementptr i8, ptr %vtable2, i64 -24
  %vbase.offset4 = load i64, ptr %vbase.offset.ptr3, align 8
  %add.ptr5 = getelementptr inbounds i8, ptr %s_rng_state, i64 %vbase.offset4
  invoke void @_ZNSt9basic_iosIcSt11char_traitsIcEE10exceptionsESt12_Ios_Iostate(ptr noundef nonnull align 8 dereferenceable(264) %add.ptr5, i32 noundef 4)
          to label %invoke.cont6 unwind label %lpad.loopexit.split-lp

invoke.cont6:                                     ; preds = %invoke.cont1
  invoke void @_ZNSt7__cxx1118basic_stringstreamIcSt11char_traitsIcESaIcEE3strERKNS_12basic_stringIcS2_S3_EE(ptr noundef nonnull align 8 dereferenceable(128) %s_rng_state, ptr noundef nonnull align 8 dereferenceable(32) %rng_state)
          to label %invoke.cont7 unwind label %lpad.loopexit.split-lp

invoke.cont7:                                     ; preds = %invoke.cont6
  %vtable.i = load ptr, ptr %s_rng_state, align 8
  %vbase.offset.ptr.i = getelementptr i8, ptr %vtable.i, i64 -24
  %vbase.offset.i = load i64, ptr %vbase.offset.ptr.i, align 8
  %add.ptr.i = getelementptr inbounds i8, ptr %s_rng_state, i64 %vbase.offset.i
  %_M_flags.i.i = getelementptr inbounds nuw i8, ptr %add.ptr.i, i64 24
  %0 = load i32, ptr %_M_flags.i.i, align 8
  store i32 4098, ptr %_M_flags.i.i, align 8
  br label %for.body.i

for.body.i:                                       ; preds = %call7.i.noexc, %invoke.cont7
  %__i.011.i = phi i64 [ 0, %invoke.cont7 ], [ %inc.i, %call7.i.noexc ]
  %arrayidx.i = getelementptr inbounds nuw [624 x i64], ptr %rng, i64 0, i64 %__i.011.i
  %call7.i1 = invoke noundef nonnull align 8 dereferenceable(16) ptr @_ZNSirsERm(ptr noundef nonnull align 8 dereferenceable(16) %s_rng_state, ptr noundef nonnull align 8 dereferenceable(8) %arrayidx.i)
          to label %call7.i.noexc unwind label %lpad.loopexit

call7.i.noexc:                                    ; preds = %for.body.i
  %inc.i = add nuw nsw i64 %__i.011.i, 1
  %exitcond.not.i = icmp eq i64 %inc.i, 624
  br i1 %exitcond.not.i, label %for.end.i, label %for.body.i, !llvm.loop !32

for.end.i:                                        ; preds = %call7.i.noexc
  %_M_p.i = getelementptr inbounds nuw i8, ptr %rng, i64 4992
  %call8.i2 = invoke noundef nonnull align 8 dereferenceable(16) ptr @_ZNSirsERm(ptr noundef nonnull align 8 dereferenceable(16) %s_rng_state, ptr noundef nonnull align 8 dereferenceable(8) %_M_p.i)
          to label %invoke.cont8 unwind label %lpad.loopexit.split-lp

invoke.cont8:                                     ; preds = %for.end.i
  %vtable9.i = load ptr, ptr %s_rng_state, align 8
  %vbase.offset.ptr10.i = getelementptr i8, ptr %vtable9.i, i64 -24
  %vbase.offset11.i = load i64, ptr %vbase.offset.ptr10.i, align 8
  %add.ptr12.i = getelementptr inbounds i8, ptr %s_rng_state, i64 %vbase.offset11.i
  %_M_flags.i10.i = getelementptr inbounds nuw i8, ptr %add.ptr12.i, i64 24
  store i32 %0, ptr %_M_flags.i10.i, align 8
  call void @_ZNSt7__cxx1118basic_stringstreamIcSt11char_traitsIcESaIcEED1Ev(ptr noundef nonnull align 8 dereferenceable(128) %s_rng_state) #36
  ret void

lpad.loopexit:                                    ; preds = %for.body.i
  %lpad.loopexit3 = landingpad { ptr, i32 }
          cleanup
  br label %lpad

lpad.loopexit.split-lp:                           ; preds = %entry, %invoke.cont, %invoke.cont1, %invoke.cont6, %for.end.i
  %lpad.loopexit.split-lp4 = landingpad { ptr, i32 }
          cleanup
  br label %lpad

lpad:                                             ; preds = %lpad.loopexit.split-lp, %lpad.loopexit
  %lpad.phi = phi { ptr, i32 } [ %lpad.loopexit3, %lpad.loopexit ], [ %lpad.loopexit.split-lp4, %lpad.loopexit.split-lp ]
  call void @_ZNSt7__cxx1118basic_stringstreamIcSt11char_traitsIcESaIcEED1Ev(ptr noundef nonnull align 8 dereferenceable(128) %s_rng_state) #36
  resume { ptr, i32 } %lpad.phi
}